target datalayout = "e-m:e-p270:32:32-p271:32:32-p272:64:64-i64:64-i128:128-f80:128-n8:16:32:64-S128"
target triple = "x86_64-pc-linux-gnu"

%struct.AVFormatContext = type { ptr, ptr, ptr, ptr, ptr, i32, i32, ptr, i32, ptr, i32, ptr, ptr, i64, i64, i64, i32, i32, i32, i64, i64, ptr, i32, i32, ptr, i32, i32, i32, i32, ptr, i64, i32, i32, %struct.AVIOInterruptCB, i32, i32, i32, i32, i64, i32, i32, i32, i32, i32, i32, i32, i32, i32, i32, i32, i32, i64, i32, i32, i32, i32, i32, ptr, ptr, ptr, ptr, i32, ptr, ptr, ptr, ptr, i32, ptr, ptr, i64, ptr, ptr, ptr, i64 }
%struct.AVIOInterruptCB = type { ptr, ptr }
%struct.MTVDemuxContext = type { i32, i32, i32, i32, i32, i32, i32, i32, i32, i32, i32 }
%struct.AVPacket = type { ptr, i64, i64, ptr, i32, i32, i32, ptr, i32, i64, i64, ptr, ptr, %struct.AVRational }
%struct.AVRational = type { i32, i32 }
%struct.FFFormatContext = type { %struct.AVFormatContext, i32, %struct.PacketList, i64, ptr, ptr, i32, ptr, i32 }
%struct.PacketList = type { ptr, ptr }

; Function Attrs: alwaysinline nounwind uwtable
define internal ptr @ffformatcontext(ptr noundef %0) #3 {
  %2 = alloca ptr, align 8
  store ptr %0, ptr %2, align 8, !tbaa !15
  %3 = load ptr, ptr %2, align 8, !tbaa !15
  ret ptr %3
}

; Function Attrs: alwaysinline nounwind uwtable
define internal i64 @avio_tell(ptr noundef %0) #3 {
  %2 = alloca ptr, align 8
  store ptr %0, ptr %2, align 8, !tbaa !35
  %3 = load ptr, ptr %2, align 8, !tbaa !35
  %4 = call i64 @avio_seek(ptr noundef %3, i64 noundef 0, i32 noundef 1)
  ret i64 %4
}

; Function Attrs: nounwind uwtable
define internal i32 @mtv_read_packet(ptr noundef %0, ptr noundef %1) #0 {
  %3 = alloca i32, align 4
  %4 = alloca ptr, align 8
  %5 = alloca ptr, align 8
  %6 = alloca ptr, align 8
  %7 = alloca ptr, align 8
  %8 = alloca i32, align 4
  %9 = alloca i32, align 4
  store ptr %0, ptr %4, align 8, !tbaa !15
  store ptr %1, ptr %5, align 8, !tbaa !79
  call void @llvm.lifetime.start.p0(i64 8, ptr %6) #4
  %10 = load ptr, ptr %4, align 8, !tbaa !15
  %11 = getelementptr inbounds nuw %struct.AVFormatContext, ptr %10, i32 0, i32 3
  %12 = load ptr, ptr %11, align 8, !tbaa !17
  store ptr %12, ptr %6, align 8, !tbaa !32
  call void @llvm.lifetime.start.p0(i64 8, ptr %7) #4
  %13 = load ptr, ptr %4, align 8, !tbaa !15
  %14 = getelementptr inbounds nuw %struct.AVFormatContext, ptr %13, i32 0, i32 4
  %15 = load ptr, ptr %14, align 8, !tbaa !34
  store ptr %15, ptr %7, align 8, !tbaa !35
  call void @llvm.lifetime.start.p0(i64 4, ptr %8) #4
  %16 = load ptr, ptr %7, align 8, !tbaa !35
  %17 = call i64 @avio_tell(ptr noundef %16)
  %18 = load ptr, ptr %4, align 8, !tbaa !15
  %19 = call ptr @ffformatcontext(ptr noundef %18)
  %20 = getelementptr inbounds nuw %struct.FFFormatContext, ptr %19, i32 0, i32 3
  %21 = load i64, ptr %20, align 8, !tbaa !81
  %22 = sub nsw i64 %17, %21
  %23 = load ptr, ptr %6, align 8, !tbaa !32
  %24 = getelementptr inbounds nuw %struct.MTVDemuxContext, ptr %23, i32 0, i32 8
  %25 = load i32, ptr %24, align 4, !tbaa !45
  %26 = zext i32 %25 to i64
  %27 = add nsw i64 %22, %26
  %28 = load ptr, ptr %6, align 8, !tbaa !32
  %29 = getelementptr inbounds nuw %struct.MTVDemuxContext, ptr %28, i32 0, i32 10
  %30 = load i32, ptr %29, align 4, !tbaa !47
  %31 = zext i32 %30 to i64
  %32 = srem i64 %27, %31
  %33 = icmp ne i64 %32, 0
  br i1 %33, label %34, label %51

34:                                               ; preds = %2
  %35 = load ptr, ptr %7, align 8, !tbaa !35
  %36 = call i64 @avio_skip(ptr noundef %35, i64 noundef 12)
  %37 = load ptr, ptr %7, align 8, !tbaa !35
  %38 = load ptr, ptr %5, align 8, !tbaa !79
  %39 = call i32 @av_get_packet(ptr noundef %37, ptr noundef %38, i32 noundef 500)
  store i32 %39, ptr %8, align 4, !tbaa !46
  %40 = load i32, ptr %8, align 4, !tbaa !46
  %41 = icmp slt i32 %40, 0
  br i1 %41, label %42, label %44

42:                                               ; preds = %34
  %43 = load i32, ptr %8, align 4, !tbaa !46
  store i32 %43, ptr %3, align 4
  store i32 1, ptr %9, align 4
  br label %67

44:                                               ; preds = %34
  %45 = load ptr, ptr %5, align 8, !tbaa !79
  %46 = getelementptr inbounds nuw %struct.AVPacket, ptr %45, i32 0, i32 10
  %47 = load i64, ptr %46, align 8, !tbaa !84
  %48 = sub nsw i64 %47, 12
  store i64 %48, ptr %46, align 8, !tbaa !84
  %49 = load ptr, ptr %5, align 8, !tbaa !79
  %50 = getelementptr inbounds nuw %struct.AVPacket, ptr %49, i32 0, i32 5
  store i32 1, ptr %50, align 4, !tbaa !85
  br label %65

51:                                               ; preds = %2
  %52 = load ptr, ptr %7, align 8, !tbaa !35
  %53 = load ptr, ptr %5, align 8, !tbaa !79
  %54 = load ptr, ptr %6, align 8, !tbaa !32
  %55 = getelementptr inbounds nuw %struct.MTVDemuxContext, ptr %54, i32 0, i32 8
  %56 = load i32, ptr %55, align 4, !tbaa !45
  %57 = call i32 @av_get_packet(ptr noundef %52, ptr noundef %53, i32 noundef %56)
  store i32 %57, ptr %8, align 4, !tbaa !46
  %58 = load i32, ptr %8, align 4, !tbaa !46
  %59 = icmp slt i32 %58, 0
  br i1 %59, label %60, label %62

60:                                               ; preds = %51
  %61 = load i32, ptr %8, align 4, !tbaa !46
  store i32 %61, ptr %3, align 4
  store i32 1, ptr %9, align 4
  br label %67

62:                                               ; preds = %51
  %63 = load ptr, ptr %5, align 8, !tbaa !79
  %64 = getelementptr inbounds nuw %struct.AVPacket, ptr %63, i32 0, i32 5
  store i32 0, ptr %64, align 4, !tbaa !85
  br label %65

65:                                               ; preds = %62, %44
  %66 = load i32, ptr %8, align 4, !tbaa !46
  store i32 %66, ptr %3, align 4
  store i32 1, ptr %9, align 4
  br label %67

67:                                               ; preds = %65, %60, %42
  call void @llvm.lifetime.end.p0(i64 4, ptr %8) #4
  call void @llvm.lifetime.end.p0(i64 8, ptr %7) #4
  call void @llvm.lifetime.end.p0(i64 8, ptr %6) #4
  %68 = load i32, ptr %3, align 4
  ret i32 %68
}