; Function Attrs: nounwind uwtable
define internal i32 @mtv_read_packet(ptr noundef readonly captures(none) %0, ptr noundef %1) #1 {
  %3 = getelementptr inbounds nuw i8, ptr %0, i64 24
  %4 = load ptr, ptr %3, align 8, !tbaa !13
  %5 = getelementptr inbounds nuw i8, ptr %0, i64 32
  %6 = load ptr, ptr %5, align 8, !tbaa !28
  %7 = tail call i64 @avio_seek(ptr noundef %6, i64 noundef 0, i32 noundef 1) #3
  %8 = getelementptr inbounds nuw i8, ptr %0, i64 496
  %9 = load i64, ptr %8, align 8, !tbaa !70
  %10 = sub i64 %7, %9
  %11 = getelementptr inbounds nuw i8, ptr %4, i64 32
  %12 = load i32, ptr %11, align 4, !tbaa !38
  %13 = zext i32 %12 to i64
  %14 = add nsw i64 %10, %13
  %15 = getelementptr inbounds nuw i8, ptr %4, i64 40
  %16 = load i32, ptr %15, align 4, !tbaa !39
  %17 = zext i32 %16 to i64
  %18 = srem i64 %14, %17
  %.not = icmp eq i64 %18, 0
  br i1 %.not, label %27, label %19

19:                                               ; preds = %2
  %20 = tail call i64 @avio_skip(ptr noundef %6, i64 noundef 12) #3
  %21 = tail call i32 @av_get_packet(ptr noundef %6, ptr noundef %1, i32 noundef 500) #3
  %22 = icmp slt i32 %21, 0
  br i1 %22, label %31, label %23

23:                                               ; preds = %19
  %24 = getelementptr inbounds nuw i8, ptr %1, i64 72
  %25 = load i64, ptr %24, align 8, !tbaa !74
  %26 = add nsw i64 %25, -12
  store i64 %26, ptr %24, align 8, !tbaa !74
  br label %.sink.split

27:                                               ; preds = %2
  %28 = tail call i32 @av_get_packet(ptr noundef %6, ptr noundef %1, i32 noundef %12) #3
  %29 = icmp slt i32 %28, 0
  br i1 %29, label %31, label %.sink.split

.sink.split:                                      ; preds = %27, %23
  %.sink = phi i32 [ 1, %23 ], [ 0, %27 ]
  %.020.ph = phi i32 [ %21, %23 ], [ %28, %27 ]
  %30 = getelementptr inbounds nuw i8, ptr %1, i64 36
  store i32 %.sink, ptr %30, align 4, !tbaa !75
  br label %31

31:                                               ; preds = %.sink.split, %27, %19
  %.020 = phi i32 [ %21, %19 ], [ %28, %27 ], [ %.020.ph, %.sink.split ]
  ret i32 %.020
}